; Function Attrs: mustprogress uwtable
define void @_ZN3g2o16OptimizableGraph4EdgeC2Ev(ptr noundef nonnull align 8 dereferenceable(176) %0) unnamed_addr #4 align 2 personality ptr @__gxx_personality_v0 {
  tail call void @_ZN3g2o10HyperGraph4EdgeC2Ei(ptr noundef nonnull align 8 dereferenceable(36) %0, i32 noundef -2)
  %2 = getelementptr inbounds nuw i8, ptr %0, i64 40
  %3 = getelementptr inbounds nuw i8, ptr %0, i64 48
  store ptr null, ptr %3, align 8, !tbaa !3
  store ptr getelementptr inbounds nuw inrange(-16, 208) (i8, ptr @_ZTVN3g2o16OptimizableGraph4EdgeE, i64 16), ptr %0, align 8, !tbaa !9
  store ptr getelementptr inbounds nuw inrange(-16, 16) (i8, ptr @_ZTVN3g2o16OptimizableGraph4EdgeE, i64 240), ptr %2, align 8, !tbaa !9
  %4 = getelementptr inbounds nuw i8, ptr %0, i64 56
  store i32 -1, ptr %4, align 8, !tbaa !35
  %5 = getelementptr inbounds nuw i8, ptr %0, i64 60
  store i32 0, ptr %5, align 4, !tbaa !60
  %6 = getelementptr inbounds nuw i8, ptr %0, i64 64
  store ptr null, ptr %6, align 8, !tbaa !61
  %7 = getelementptr inbounds nuw i8, ptr %0, i64 80
  tail call void @llvm.memset.p0.i64(ptr noundef nonnull align 8 dereferenceable(96) %7, i8 0, i64 96, i1 false)
  ret void
}